target datalayout = "e-m:e-p270:32:32-p271:32:32-p272:64:64-i64:64-i128:128-f80:128-n8:16:32:64-S128"
target triple = "x86_64-pc-linux-gnu"

%"class.llvm::MCAssembler" = type <{ ptr, %"class.std::unique_ptr", %"class.std::unique_ptr.2", %"class.std::unique_ptr.10", i8, i8, [6 x i8], %"class.llvm::SmallVector", %"class.llvm::SmallVector.18", %"struct.llvm::MCDwarfLineTableParams", [5 x i8], %"class.llvm::SmallPtrSet", i32, [4 x i8] }>
%"class.std::unique_ptr" = type { %"struct.std::__uniq_ptr_data" }
%"struct.std::__uniq_ptr_data" = type { %"class.std::__uniq_ptr_impl" }
%"class.std::__uniq_ptr_impl" = type { %"class.std::tuple" }
%"class.std::tuple" = type { %"struct.std::_Tuple_impl" }
%"struct.std::_Tuple_impl" = type { %"struct.std::_Head_base.1" }
%"struct.std::_Head_base.1" = type { ptr }
%"class.std::unique_ptr.2" = type { %"struct.std::__uniq_ptr_data.3" }
%"struct.std::__uniq_ptr_data.3" = type { %"class.std::__uniq_ptr_impl.4" }
%"class.std::__uniq_ptr_impl.4" = type { %"class.std::tuple.5" }
%"class.std::tuple.5" = type { %"struct.std::_Tuple_impl.6" }
%"struct.std::_Tuple_impl.6" = type { %"struct.std::_Head_base.9" }
%"struct.std::_Head_base.9" = type { ptr }
%"class.std::unique_ptr.10" = type { %"struct.std::__uniq_ptr_data.11" }
%"struct.std::__uniq_ptr_data.11" = type { %"class.std::__uniq_ptr_impl.12" }
%"class.std::__uniq_ptr_impl.12" = type { %"class.std::tuple.13" }
%"class.std::tuple.13" = type { %"struct.std::_Tuple_impl.14" }
%"struct.std::_Tuple_impl.14" = type { %"struct.std::_Head_base.17" }
%"struct.std::_Head_base.17" = type { ptr }
%"class.llvm::SmallVector" = type { %"class.llvm::SmallVectorImpl" }
%"class.llvm::SmallVectorImpl" = type { %"class.llvm::SmallVectorTemplateBase" }
%"class.llvm::SmallVectorTemplateBase" = type { %"class.llvm::SmallVectorTemplateCommon" }
%"class.llvm::SmallVectorTemplateCommon" = type { %"class.llvm::SmallVectorBase" }
%"class.llvm::SmallVectorBase" = type { ptr, i32, i32 }
%"class.llvm::SmallVector.18" = type { %"class.llvm::SmallVectorImpl.19" }
%"class.llvm::SmallVectorImpl.19" = type { %"class.llvm::SmallVectorTemplateBase.20" }
%"class.llvm::SmallVectorTemplateBase.20" = type { %"class.llvm::SmallVectorTemplateCommon.21" }
%"class.llvm::SmallVectorTemplateCommon.21" = type { %"class.llvm::SmallVectorBase" }
%"struct.llvm::MCDwarfLineTableParams" = type { i8, i8, i8 }
%"class.llvm::SmallPtrSet" = type { %"class.llvm::SmallPtrSetImpl.base", [32 x ptr] }
%"class.llvm::SmallPtrSetImpl.base" = type { %"class.llvm::SmallPtrSetImplBase.base" }
%"class.llvm::SmallPtrSetImplBase.base" = type <{ ptr, ptr, i32, i32, i32 }>
%"class.llvm::MCFragment.base" = type <{ ptr, ptr, i64, i32, i8, i8 }>
%"class.llvm::Twine" = type <{ %"union.llvm::Twine::Child", %"union.llvm::Twine::Child", i8, i8, [6 x i8] }>
%"union.llvm::Twine::Child" = type { %struct.anon }
%struct.anon = type { ptr, i64 }
%"class.llvm::MCFragment" = type <{ ptr, ptr, i64, i32, i8, i8, [2 x i8] }>
%"class.llvm::MCEncodedFragment" = type { %"class.llvm::MCFragment.base", i8, ptr }

@.str.48 = private unnamed_addr constant [33 x i8] c"unable to write NOP sequence of \00", align 1
@.str.49 = private unnamed_addr constant [7 x i8] c" bytes\00", align 1

; Function Attrs: mustprogress nounwind uwtable
define linkonce_odr hidden noundef nonnull align 8 dereferenceable(8) ptr @_ZNSt10_Head_baseILm0EPN4llvm12MCAsmBackendELb0EE7_M_headERKS3_(ptr noundef nonnull align 8 dereferenceable(8) %0) #1 comdat align 2 {
  %2 = alloca ptr, align 8
  store ptr %0, ptr %2, align 8
  %3 = load ptr, ptr %2, align 8
  %4 = getelementptr inbounds nuw %"struct.std::_Head_base.1", ptr %3, i32 0, i32 0
  ret ptr %4
}

; Function Attrs: mustprogress nounwind uwtable
define linkonce_odr hidden noundef nonnull align 8 dereferenceable(8) ptr @_ZNSt11_Tuple_implILm0EJPN4llvm12MCAsmBackendESt14default_deleteIS1_EEE7_M_headERKS5_(ptr noundef nonnull align 8 dereferenceable(8) %0) #1 comdat align 2 {
  %2 = alloca ptr, align 8
  store ptr %0, ptr %2, align 8
  %3 = load ptr, ptr %2, align 8
  %4 = call noundef nonnull align 8 dereferenceable(8) ptr @_ZNSt10_Head_baseILm0EPN4llvm12MCAsmBackendELb0EE7_M_headERKS3_(ptr noundef nonnull align 8 dereferenceable(8) %3) #8
  ret ptr %4
}

; Function Attrs: mustprogress nounwind uwtable
define linkonce_odr noundef nonnull align 8 dereferenceable(8) ptr @_ZSt12__get_helperILm0EPN4llvm12MCAsmBackendEJSt14default_deleteIS1_EEERKT0_RKSt11_Tuple_implIXT_EJS5_DpT1_EE(ptr noundef nonnull align 8 dereferenceable(8) %0) #1 comdat {
  %2 = alloca ptr, align 8
  store ptr %0, ptr %2, align 8
  %3 = load ptr, ptr %2, align 8
  %4 = call noundef nonnull align 8 dereferenceable(8) ptr @_ZNSt11_Tuple_implILm0EJPN4llvm12MCAsmBackendESt14default_deleteIS1_EEE7_M_headERKS5_(ptr noundef nonnull align 8 dereferenceable(8) %3) #8
  ret ptr %4
}

; Function Attrs: mustprogress nounwind uwtable
define linkonce_odr noundef nonnull align 8 dereferenceable(8) ptr @_ZSt3getILm0EJPN4llvm12MCAsmBackendESt14default_deleteIS1_EEERKNSt13tuple_elementIXT_ESt5tupleIJDpT0_EEE4typeERKS9_(ptr noundef nonnull align 8 dereferenceable(8) %0) #1 comdat {
  %2 = alloca ptr, align 8
  store ptr %0, ptr %2, align 8
  %3 = load ptr, ptr %2, align 8
  %4 = call noundef nonnull align 8 dereferenceable(8) ptr @_ZSt12__get_helperILm0EPN4llvm12MCAsmBackendEJSt14default_deleteIS1_EEERKT0_RKSt11_Tuple_implIXT_EJS5_DpT1_EE(ptr noundef nonnull align 8 dereferenceable(8) %3) #8
  ret ptr %4
}

; Function Attrs: mustprogress nounwind uwtable
define linkonce_odr hidden noundef ptr @_ZNKSt15__uniq_ptr_implIN4llvm12MCAsmBackendESt14default_deleteIS1_EE6_M_ptrEv(ptr noundef nonnull align 8 dereferenceable(8) %0) #1 comdat align 2 {
  %2 = alloca ptr, align 8
  store ptr %0, ptr %2, align 8
  %3 = load ptr, ptr %2, align 8
  %4 = getelementptr inbounds nuw %"class.std::__uniq_ptr_impl", ptr %3, i32 0, i32 0
  %5 = call noundef nonnull align 8 dereferenceable(8) ptr @_ZSt3getILm0EJPN4llvm12MCAsmBackendESt14default_deleteIS1_EEERKNSt13tuple_elementIXT_ESt5tupleIJDpT0_EEE4typeERKS9_(ptr noundef nonnull align 8 dereferenceable(8) %4) #8
  %6 = load ptr, ptr %5, align 8
  ret ptr %6
}

; Function Attrs: mustprogress nounwind uwtable
define linkonce_odr hidden noundef ptr @_ZNKSt10unique_ptrIN4llvm12MCAsmBackendESt14default_deleteIS1_EE3getEv(ptr noundef nonnull align 8 dereferenceable(8) %0) #1 comdat align 2 {
  %2 = alloca ptr, align 8
  store ptr %0, ptr %2, align 8
  %3 = load ptr, ptr %2, align 8
  %4 = getelementptr inbounds nuw %"class.std::unique_ptr", ptr %3, i32 0, i32 0
  %5 = call noundef ptr @_ZNKSt15__uniq_ptr_implIN4llvm12MCAsmBackendESt14default_deleteIS1_EE6_M_ptrEv(ptr noundef nonnull align 8 dereferenceable(8) %4) #8
  ret ptr %5
}

; Function Attrs: mustprogress nounwind uwtable
define linkonce_odr hidden noundef nonnull align 8 dereferenceable(16) ptr @_ZNKSt10unique_ptrIN4llvm12MCAsmBackendESt14default_deleteIS1_EEdeEv(ptr noundef nonnull align 8 dereferenceable(8) %0) #1 comdat align 2 {
  %2 = alloca ptr, align 8
  store ptr %0, ptr %2, align 8
  %3 = load ptr, ptr %2, align 8
  br label %4

4:                                                ; preds = %1
  br label %5

5:                                                ; preds = %4
  %6 = call noundef ptr @_ZNKSt10unique_ptrIN4llvm12MCAsmBackendESt14default_deleteIS1_EE3getEv(ptr noundef nonnull align 8 dereferenceable(8) %3) #8
  ret ptr %6
}

; Function Attrs: mustprogress nounwind uwtable
define linkonce_odr hidden void @_ZN4llvm5TwineC2Ej(ptr noundef nonnull align 8 dereferenceable(34) %0, i32 noundef %1) unnamed_addr #1 comdat align 2 {
  %3 = alloca ptr, align 8
  %4 = alloca i32, align 4
  store ptr %0, ptr %3, align 8
  store i32 %1, ptr %4, align 4
  %5 = load ptr, ptr %3, align 8
  %6 = getelementptr inbounds nuw %"class.llvm::Twine", ptr %5, i32 0, i32 2
  store i8 9, ptr %6, align 8
  %7 = getelementptr inbounds nuw %"class.llvm::Twine", ptr %5, i32 0, i32 3
  store i8 1, ptr %7, align 1
  %8 = load i32, ptr %4, align 4
  %9 = getelementptr inbounds nuw %"class.llvm::Twine", ptr %5, i32 0, i32 0
  store i32 %8, ptr %9, align 8
  ret void
}

; Function Attrs: mustprogress nounwind uwtable
define linkonce_odr hidden void @_ZN4llvm5TwineC2EPKc(ptr noundef nonnull align 8 dereferenceable(34) %0, ptr noundef %1) unnamed_addr #1 comdat align 2 {
  %3 = alloca ptr, align 8
  %4 = alloca ptr, align 8
  store ptr %0, ptr %3, align 8
  store ptr %1, ptr %4, align 8
  %5 = load ptr, ptr %3, align 8
  %6 = getelementptr inbounds nuw %"class.llvm::Twine", ptr %5, i32 0, i32 2
  store i8 1, ptr %6, align 8
  %7 = getelementptr inbounds nuw %"class.llvm::Twine", ptr %5, i32 0, i32 3
  store i8 1, ptr %7, align 1
  %8 = load ptr, ptr %4, align 8
  %9 = getelementptr inbounds i8, ptr %8, i64 0
  %10 = load i8, ptr %9, align 1
  %11 = sext i8 %10 to i32
  %12 = icmp ne i32 %11, 0
  br i1 %12, label %13, label %17

13:                                               ; preds = %2
  %14 = load ptr, ptr %4, align 8
  %15 = getelementptr inbounds nuw %"class.llvm::Twine", ptr %5, i32 0, i32 0
  store ptr %14, ptr %15, align 8
  %16 = getelementptr inbounds nuw %"class.llvm::Twine", ptr %5, i32 0, i32 2
  store i8 3, ptr %16, align 8
  br label %19

17:                                               ; preds = %2
  %18 = getelementptr inbounds nuw %"class.llvm::Twine", ptr %5, i32 0, i32 2
  store i8 1, ptr %18, align 8
  br label %19

19:                                               ; preds = %17, %13
  ret void
}

; Function Attrs: mustprogress nounwind uwtable
define linkonce_odr hidden noundef nonnull align 8 dereferenceable(16) ptr @_ZNK4llvm11MCAssembler10getBackendEv(ptr noundef nonnull align 8 dereferenceable(372) %0) #1 comdat align 2 {
  %2 = alloca ptr, align 8
  store ptr %0, ptr %2, align 8
  %3 = load ptr, ptr %2, align 8
  %4 = getelementptr inbounds nuw %"class.llvm::MCAssembler", ptr %3, i32 0, i32 1
  %5 = call noundef nonnull align 8 dereferenceable(16) ptr @_ZNKSt10unique_ptrIN4llvm12MCAsmBackendESt14default_deleteIS1_EEdeEv(ptr noundef nonnull align 8 dereferenceable(8) %4) #8
  ret ptr %5
}

; Function Attrs: mustprogress nounwind uwtable
define linkonce_odr hidden noundef i32 @_ZNK4llvm11MCAssembler18getBundleAlignSizeEv(ptr noundef nonnull align 8 dereferenceable(372) %0) #1 comdat align 2 {
  %2 = alloca ptr, align 8
  store ptr %0, ptr %2, align 8
  %3 = load ptr, ptr %2, align 8
  %4 = getelementptr inbounds nuw %"class.llvm::MCAssembler", ptr %3, i32 0, i32 12
  %5 = load i32, ptr %4, align 8
  ret i32 %5
}

; Function Attrs: mustprogress nounwind uwtable
define linkonce_odr hidden noundef zeroext i1 @_ZNK4llvm17MCEncodedFragment16alignToBundleEndEv(ptr noundef nonnull align 8 dereferenceable(40) %0) #1 comdat align 2 {
  %2 = alloca ptr, align 8
  store ptr %0, ptr %2, align 8
  %3 = load ptr, ptr %2, align 8
  %4 = getelementptr inbounds nuw %"class.llvm::MCFragment", ptr %3, i32 0, i32 5
  %5 = load i8, ptr %4, align 1
  %6 = lshr i8 %5, 1
  %7 = and i8 %6, 1
  %8 = trunc i8 %7 to i1
  ret i1 %8
}

; Function Attrs: mustprogress nounwind uwtable
define linkonce_odr hidden noundef ptr @_ZNK4llvm17MCEncodedFragment16getSubtargetInfoEv(ptr noundef nonnull align 8 dereferenceable(40) %0) #1 comdat align 2 {
  %2 = alloca ptr, align 8
  store ptr %0, ptr %2, align 8
  %3 = load ptr, ptr %2, align 8
  %4 = getelementptr inbounds nuw %"class.llvm::MCEncodedFragment", ptr %3, i32 0, i32 2
  %5 = load ptr, ptr %4, align 8
  ret ptr %5
}

; Function Attrs: mustprogress nounwind uwtable
define linkonce_odr hidden noundef zeroext i8 @_ZNK4llvm17MCEncodedFragment16getBundlePaddingEv(ptr noundef nonnull align 8 dereferenceable(40) %0) #1 comdat align 2 {
  %2 = alloca ptr, align 8
  store ptr %0, ptr %2, align 8
  %3 = load ptr, ptr %2, align 8
  %4 = getelementptr inbounds nuw %"class.llvm::MCEncodedFragment", ptr %3, i32 0, i32 1
  %5 = load i8, ptr %4, align 2
  ret i8 %5
}

; Function Attrs: mustprogress nounwind uwtable
define dso_local void @_ZNK4llvm11MCAssembler20writeFragmentPaddingERNS_11raw_ostreamERKNS_17MCEncodedFragmentEm(ptr noundef nonnull align 8 dereferenceable(372) %0, ptr noundef nonnull align 8 dereferenceable(48) %1, ptr noundef nonnull align 8 dereferenceable(40) %2, i64 noundef %3) #1 align 2 {
  %5 = alloca ptr, align 8
  %6 = alloca ptr, align 8
  %7 = alloca ptr, align 8
  %8 = alloca i64, align 8
  %9 = alloca i32, align 4
  %10 = alloca i32, align 4
  %11 = alloca ptr, align 8
  %12 = alloca i32, align 4
  %13 = alloca %"class.llvm::Twine", align 8
  %14 = alloca %"class.llvm::Twine", align 8
  %15 = alloca %"class.llvm::Twine", align 8
  %16 = alloca %"class.llvm::Twine", align 8
  %17 = alloca %"class.llvm::Twine", align 8
  %18 = alloca %"class.llvm::Twine", align 8
  %19 = alloca %"class.llvm::Twine", align 8
  %20 = alloca %"class.llvm::Twine", align 8
  %21 = alloca %"class.llvm::Twine", align 8
  %22 = alloca %"class.llvm::Twine", align 8
  store ptr %0, ptr %5, align 8
  store ptr %1, ptr %6, align 8
  store ptr %2, ptr %7, align 8
  store i64 %3, ptr %8, align 8
  %23 = load ptr, ptr %5, align 8
  %24 = load ptr, ptr %7, align 8
  %25 = call noundef zeroext i8 @_ZNK4llvm17MCEncodedFragment16getBundlePaddingEv(ptr noundef nonnull align 8 dereferenceable(40) %24)
  %26 = zext i8 %25 to i32
  store i32 %26, ptr %9, align 4
  %27 = load i32, ptr %9, align 4
  %28 = icmp ugt i32 %27, 0
  br i1 %28, label %29, label %74

29:                                               ; preds = %4
  %30 = load i32, ptr %9, align 4
  %31 = load i64, ptr %8, align 8
  %32 = trunc i64 %31 to i32
  %33 = add i32 %30, %32
  store i32 %33, ptr %10, align 4
  %34 = load ptr, ptr %7, align 8
  %35 = call noundef ptr @_ZNK4llvm17MCEncodedFragment16getSubtargetInfoEv(ptr noundef nonnull align 8 dereferenceable(40) %34)
  store ptr %35, ptr %11, align 8
  %36 = load ptr, ptr %7, align 8
  %37 = call noundef zeroext i1 @_ZNK4llvm17MCEncodedFragment16alignToBundleEndEv(ptr noundef nonnull align 8 dereferenceable(40) %36)
  br i1 %37, label %38, label %61

38:                                               ; preds = %29
  %39 = load i32, ptr %10, align 4
  %40 = call noundef i32 @_ZNK4llvm11MCAssembler18getBundleAlignSizeEv(ptr noundef nonnull align 8 dereferenceable(372) %23)
  %41 = icmp ugt i32 %39, %40
  br i1 %41, label %42, label %61

42:                                               ; preds = %38
  %43 = load i32, ptr %10, align 4
  %44 = call noundef i32 @_ZNK4llvm11MCAssembler18getBundleAlignSizeEv(ptr noundef nonnull align 8 dereferenceable(372) %23)
  %45 = sub i32 %43, %44
  store i32 %45, ptr %12, align 4
  %46 = call noundef nonnull align 8 dereferenceable(16) ptr @_ZNK4llvm11MCAssembler10getBackendEv(ptr noundef nonnull align 8 dereferenceable(372) %23)
  %47 = load ptr, ptr %6, align 8
  %48 = load i32, ptr %12, align 4
  %49 = zext i32 %48 to i64
  %50 = load ptr, ptr %11, align 8
  %51 = load ptr, ptr %46, align 8
  %52 = getelementptr inbounds ptr, ptr %51, i64 24
  %53 = load ptr, ptr %52, align 8
  %54 = call noundef zeroext i1 %53(ptr noundef nonnull align 8 dereferenceable(16) %46, ptr noundef nonnull align 8 dereferenceable(48) %47, i64 noundef %49, ptr noundef %50)
  br i1 %54, label %57, label %55

55:                                               ; preds = %42
  call void @_ZN4llvm5TwineC2EPKc(ptr noundef nonnull align 8 dereferenceable(34) %15, ptr noundef @.str.48)
  %56 = load i32, ptr %12, align 4
  call void @_ZN4llvm5TwineC2Ej(ptr noundef nonnull align 8 dereferenceable(34) %16, i32 noundef %56)
  call void @_ZN4llvmplERKNS_5TwineES2_(ptr dead_on_unwind writable sret(%"class.llvm::Twine") align 8 %14, ptr noundef nonnull align 8 dereferenceable(34) %15, ptr noundef nonnull align 8 dereferenceable(34) %16)
  call void @_ZN4llvm5TwineC2EPKc(ptr noundef nonnull align 8 dereferenceable(34) %17, ptr noundef @.str.49)
  call void @_ZN4llvmplERKNS_5TwineES2_(ptr dead_on_unwind writable sret(%"class.llvm::Twine") align 8 %13, ptr noundef nonnull align 8 dereferenceable(34) %14, ptr noundef nonnull align 8 dereferenceable(34) %17)
  call void @_ZN4llvm18report_fatal_errorERKNS_5TwineEb(ptr noundef nonnull align 8 dereferenceable(34) %13, i1 noundef zeroext true) #9
  unreachable

57:                                               ; preds = %42
  %58 = load i32, ptr %12, align 4
  %59 = load i32, ptr %9, align 4
  %60 = sub i32 %59, %58
  store i32 %60, ptr %9, align 4
  br label %61

61:                                               ; preds = %57, %38, %29
  %62 = call noundef nonnull align 8 dereferenceable(16) ptr @_ZNK4llvm11MCAssembler10getBackendEv(ptr noundef nonnull align 8 dereferenceable(372) %23)
  %63 = load ptr, ptr %6, align 8
  %64 = load i32, ptr %9, align 4
  %65 = zext i32 %64 to i64
  %66 = load ptr, ptr %11, align 8
  %67 = load ptr, ptr %62, align 8
  %68 = getelementptr inbounds ptr, ptr %67, i64 24
  %69 = load ptr, ptr %68, align 8
  %70 = call noundef zeroext i1 %69(ptr noundef nonnull align 8 dereferenceable(16) %62, ptr noundef nonnull align 8 dereferenceable(48) %63, i64 noundef %65, ptr noundef %66)
  br i1 %70, label %73, label %71

71:                                               ; preds = %61
  call void @_ZN4llvm5TwineC2EPKc(ptr noundef nonnull align 8 dereferenceable(34) %20, ptr noundef @.str.48)
  %72 = load i32, ptr %9, align 4
  call void @_ZN4llvm5TwineC2Ej(ptr noundef nonnull align 8 dereferenceable(34) %21, i32 noundef %72)
  call void @_ZN4llvmplERKNS_5TwineES2_(ptr dead_on_unwind writable sret(%"class.llvm::Twine") align 8 %19, ptr noundef nonnull align 8 dereferenceable(34) %20, ptr noundef nonnull align 8 dereferenceable(34) %21)
  call void @_ZN4llvm5TwineC2EPKc(ptr noundef nonnull align 8 dereferenceable(34) %22, ptr noundef @.str.49)
  call void @_ZN4llvmplERKNS_5TwineES2_(ptr dead_on_unwind writable sret(%"class.llvm::Twine") align 8 %18, ptr noundef nonnull align 8 dereferenceable(34) %19, ptr noundef nonnull align 8 dereferenceable(34) %22)
  call void @_ZN4llvm18report_fatal_errorERKNS_5TwineEb(ptr noundef nonnull align 8 dereferenceable(34) %18, i1 noundef zeroext true) #9
  unreachable

73:                                               ; preds = %61
  br label %74

74:                                               ; preds = %73, %4
  ret void
}