; Function Attrs: mustprogress nounwind uwtable
define dso_local void @_ZNK4llvm11MCAssembler20writeFragmentPaddingERNS_11raw_ostreamERKNS_17MCEncodedFragmentEm(ptr nocapture noundef nonnull readonly align 8 dereferenceable(372) %0, ptr noundef nonnull align 8 dereferenceable(48) %1, ptr nocapture noundef nonnull readonly align 8 dereferenceable(40) %2, i64 noundef %3) local_unnamed_addr #0 align 2 {
  %5 = alloca %"class.llvm::Twine", align 8
  %6 = alloca %"class.llvm::Twine", align 8
  %7 = alloca %"class.llvm::Twine", align 8
  %8 = alloca %"class.llvm::Twine", align 8
  %9 = alloca %"class.llvm::Twine", align 8
  %10 = alloca %"class.llvm::Twine", align 8
  %11 = alloca %"class.llvm::Twine", align 8
  %12 = alloca %"class.llvm::Twine", align 8
  %13 = alloca %"class.llvm::Twine", align 8
  %14 = alloca %"class.llvm::Twine", align 8
  %15 = getelementptr inbounds nuw i8, ptr %2, i64 30
  %16 = load i8, ptr %15, align 2
  %17 = zext i8 %16 to i32
  %.not = icmp eq i8 %16, 0
  br i1 %.not, label %63, label %18

18:                                               ; preds = %4
  %19 = trunc i64 %3 to i32
  %20 = add i32 %17, %19
  %21 = getelementptr inbounds nuw i8, ptr %2, i64 32
  %22 = load ptr, ptr %21, align 8
  %23 = getelementptr inbounds nuw i8, ptr %2, i64 29
  %24 = load i8, ptr %23, align 1
  %25 = and i8 %24, 2
  %.not20 = icmp eq i8 %25, 0
  br i1 %.not20, label %48, label %26

26:                                               ; preds = %18
  %27 = getelementptr inbounds nuw i8, ptr %0, i64 368
  %28 = load i32, ptr %27, align 8
  %29 = icmp ugt i32 %20, %28
  br i1 %29, label %30, label %48

30:                                               ; preds = %26
  %31 = sub nuw i32 %20, %28
  %32 = getelementptr inbounds nuw i8, ptr %0, i64 8
  %33 = load ptr, ptr %32, align 8
  %34 = zext i32 %31 to i64
  %35 = load ptr, ptr %33, align 8
  %36 = getelementptr inbounds i8, ptr %35, i64 192
  %37 = load ptr, ptr %36, align 8
  %38 = tail call noundef zeroext i1 %37(ptr noundef nonnull align 8 dereferenceable(16) %33, ptr noundef nonnull align 8 dereferenceable(48) %1, i64 noundef %34, ptr noundef %22) #11
  br i1 %38, label %46, label %39

39:                                               ; preds = %30
  %40 = getelementptr inbounds nuw i8, ptr %7, i64 32
  %41 = getelementptr inbounds nuw i8, ptr %7, i64 33
  store i8 1, ptr %41, align 1
  store ptr @.str.48, ptr %7, align 8
  store i8 3, ptr %40, align 8
  %42 = getelementptr inbounds nuw i8, ptr %8, i64 32
  store i8 9, ptr %42, align 8
  %43 = getelementptr inbounds nuw i8, ptr %8, i64 33
  store i8 1, ptr %43, align 1
  store i32 %31, ptr %8, align 8
  call void @_ZN4llvmplERKNS_5TwineES2_(ptr dead_on_unwind nonnull writable sret(%"class.llvm::Twine") align 8 %6, ptr noundef nonnull align 8 dereferenceable(34) %7, ptr noundef nonnull align 8 dereferenceable(34) %8)
  %44 = getelementptr inbounds nuw i8, ptr %9, i64 32
  %45 = getelementptr inbounds nuw i8, ptr %9, i64 33
  store i8 1, ptr %45, align 1
  store ptr @.str.49, ptr %9, align 8
  store i8 3, ptr %44, align 8
  call void @_ZN4llvmplERKNS_5TwineES2_(ptr dead_on_unwind nonnull writable sret(%"class.llvm::Twine") align 8 %5, ptr noundef nonnull align 8 dereferenceable(34) %6, ptr noundef nonnull align 8 dereferenceable(34) %9)
  call void @_ZN4llvm18report_fatal_errorERKNS_5TwineEb(ptr noundef nonnull align 8 dereferenceable(34) %5, i1 noundef zeroext true) #12
  unreachable

46:                                               ; preds = %30
  %47 = sub i32 %17, %31
  br label %48

48:                                               ; preds = %46, %26, %18
  %.0 = phi i32 [ %47, %46 ], [ %17, %26 ], [ %17, %18 ]
  %49 = getelementptr inbounds nuw i8, ptr %0, i64 8
  %50 = load ptr, ptr %49, align 8
  %51 = zext i32 %.0 to i64
  %52 = load ptr, ptr %50, align 8
  %53 = getelementptr inbounds i8, ptr %52, i64 192
  %54 = load ptr, ptr %53, align 8
  %55 = tail call noundef zeroext i1 %54(ptr noundef nonnull align 8 dereferenceable(16) %50, ptr noundef nonnull align 8 dereferenceable(48) %1, i64 noundef %51, ptr noundef %22) #11
  br i1 %55, label %63, label %56

56:                                               ; preds = %48
  %57 = getelementptr inbounds nuw i8, ptr %12, i64 32
  %58 = getelementptr inbounds nuw i8, ptr %12, i64 33
  store i8 1, ptr %58, align 1
  store ptr @.str.48, ptr %12, align 8
  store i8 3, ptr %57, align 8
  %59 = getelementptr inbounds nuw i8, ptr %13, i64 32
  store i8 9, ptr %59, align 8
  %60 = getelementptr inbounds nuw i8, ptr %13, i64 33
  store i8 1, ptr %60, align 1
  store i32 %.0, ptr %13, align 8
  call void @_ZN4llvmplERKNS_5TwineES2_(ptr dead_on_unwind nonnull writable sret(%"class.llvm::Twine") align 8 %11, ptr noundef nonnull align 8 dereferenceable(34) %12, ptr noundef nonnull align 8 dereferenceable(34) %13)
  %61 = getelementptr inbounds nuw i8, ptr %14, i64 32
  %62 = getelementptr inbounds nuw i8, ptr %14, i64 33
  store i8 1, ptr %62, align 1
  store ptr @.str.49, ptr %14, align 8
  store i8 3, ptr %61, align 8
  call void @_ZN4llvmplERKNS_5TwineES2_(ptr dead_on_unwind nonnull writable sret(%"class.llvm::Twine") align 8 %10, ptr noundef nonnull align 8 dereferenceable(34) %11, ptr noundef nonnull align 8 dereferenceable(34) %14)
  call void @_ZN4llvm18report_fatal_errorERKNS_5TwineEb(ptr noundef nonnull align 8 dereferenceable(34) %10, i1 noundef zeroext true) #12
  unreachable

63:                                               ; preds = %48, %4
  ret void
}